(dp1
S'files'
p2
(dp3
S'madrona_manipulators_urls'
p4
(dp5
S'index'
p6
(dp7
S'par'
p8
I0
sS'html_filename'
p9
S'madrona_manipulators_urls.html'
p10
sS'name'
p11
S'madrona/manipulators/urls'
p12
sS'nums'
p13
ccopy_reg
_reconstructor
p14
(ccoverage.results
Numbers
p15
c__builtin__
object
p16
NtRp17
(dp18
S'n_files'
p19
I1
sS'n_branches'
p20
I0
sS'n_statements'
p21
I2
sS'n_excluded'
p22
I0
sS'n_missing'
p23
I0
sS'n_missing_branches'
p24
I0
sbssS'hash'
p25
S'\x85\x7f\xa3\xa9\x90\x01\xc7?\xf1j\x91\xcf\x06\xe8v\x7f'
p26
ssS'madrona_shapes___init__'
p27
(dp28
g6
(dp29
g8
I0
sg9
S'madrona_shapes___init__.html'
p30
sg11
S'madrona/shapes/__init__'
p31
sg13
g14
(g15
g16
NtRp32
(dp33
g19
I1
sg20
I0
sg21
I0
sg22
I0
sg23
I0
sg24
I0
sbssg25
S'\xb0\xc8pN\xaf>\xa0\xbaz\x144\xe0A9\xb8?'
p34
ssS'madrona_studyregion_admin'
p35
(dp36
g6
(dp37
g8
I0
sg9
S'madrona_studyregion_admin.html'
p38
sg11
S'madrona/studyregion/admin'
p39
sg13
g14
(g15
g16
NtRp40
(dp41
g19
I1
sg20
I0
sg21
I7
sg22
I0
sg23
I0
sg24
I0
sbssg25
S'c\xe5\xec=7\xd8A\r\xe1\xdcO\x05\xedc\xb8#'
p42
ssS'madrona_user_profile_admin'
p43
(dp44
g6
(dp45
g8
I0
sg9
S'madrona_user_profile_admin.html'
p46
sg11
S'madrona/user_profile/admin'
p47
sg13
g14
(g15
g16
NtRp48
(dp49
g19
I1
sg20
I0
sg21
I5
sg22
I0
sg23
I0
sg24
I0
sbssg25
S'\x91\x8e\xd7\x86\xd4h\x1b\x84\x90\xe2\x99k\xdd\xda+\xdf'
p50
ssS'madrona_features_managers'
p51
(dp52
g6
(dp53
g8
I0
sg9
S'madrona_features_managers.html'
p54
sg11
S'madrona/features/managers'
p55
sg13
g14
(g15
g16
NtRp56
(dp57
g19
I1
sg20
I0
sg21
I34
sg22
I0
sg23
I28
sg24
I0
sbssg25
S'\x19T\xae\x03}\xff\xd8\x12\x02\x9dm\x1c3\xc6\xebL'
p58
ssS'madrona_google-analytics___init__'
p59
(dp60
g6
(dp61
g8
I0
sg9
S'madrona_google-analytics___init__.html'
p62
sg11
S'madrona/google-analytics/__init__'
p63
sg13
g14
(g15
g16
NtRp64
(dp65
g19
I1
sg20
I0
sg21
I0
sg22
I0
sg23
I0
sg24
I0
sbssg25
S'\xb0\xc8pN\xaf>\xa0\xbaz\x144\xe0A9\xb8?'
p66
ssS'madrona_analysistools_models'
p67
(dp68
g6
(dp69
g8
I0
sg9
S'madrona_analysistools_models.html'
p70
sg11
S'madrona/analysistools/models'
p71
sg13
g14
(g15
g16
NtRp72
(dp73
g19
I1
sg20
I0
sg21
I60
sg22
I0
sg23
I34
sg24
I0
sbssg25
S'\x13\xe8\x81\xa8\x9d`\xa5\x13\xe9\xb4Cf\x1c\xbaLK'
p74
ssS'madrona_features_models'
p75
(dp76
g6
(dp77
g8
I0
sg9
S'madrona_features_models.html'
p78
sg11
S'madrona/features/models'
p79
sg13
g14
(g15
g16
NtRp80
(dp81
g19
I1
sg20
I0
sg21
I294
sg22
I0
sg23
I207
sg24
I0
sbssg25
S'\x0f\x01\xdc\xddfmex\xd9\xd2\xd3<\xd8u\x93\xcd'
p82
ssS'madrona_manipulators_management___init__'
p83
(dp84
g6
(dp85
g8
I0
sg9
S'madrona_manipulators_management___init__.html'
p86
sg11
S'madrona/manipulators/management/__init__'
p87
sg13
g14
(g15
g16
NtRp88
(dp89
g19
I1
sg20
I0
sg21
I0
sg22
I0
sg23
I0
sg24
I0
sbssg25
S'\xb0\xc8pN\xaf>\xa0\xbaz\x144\xe0A9\xb8?'
p90
ssS'madrona_common_management_commands_install_media'
p91
(dp92
g6
(dp93
g8
I0
sg9
S'madrona_common_management_commands_install_media.html'
p94
sg11
S'madrona/common/management/commands/install_media'
p95
sg13
g14
(g15
g16
NtRp96
(dp97
g19
I1
sg20
I0
sg21
I120
sg22
I0
sg23
I85
sg24
I0
sbssg25
S'b\xe1g\xa4w\x02iC\xb4;\xee\xd3\n\xaf\xc5\x16'
p98
ssS'madrona_shapes_models'
p99
(dp100
g6
(dp101
g8
I0
sg9
S'madrona_shapes_models.html'
p102
sg11
S'madrona/shapes/models'
p103
sg13
g14
(g15
g16
NtRp104
(dp105
g19
I1
sg20
I0
sg21
I0
sg22
I0
sg23
I0
sg24
I0
sbssg25
S'!\xbe\x06L\t\xb9\x06\t\t5J\xce\xfcS\x98\xa8'
p106
ssS'madrona_common_management_commands___init__'
p107
(dp108
g6
(dp109
g8
I0
sg9
S'madrona_common_management_commands___init__.html'
p110
sg11
S'madrona/common/management/commands/__init__'
p111
sg13
g14
(g15
g16
NtRp112
(dp113
g19
I1
sg20
I0
sg21
I0
sg22
I0
sg23
I0
sg24
I0
sbssg25
S'\xb0\xc8pN\xaf>\xa0\xbaz\x144\xe0A9\xb8?'
p114
ssS'madrona_unit_converter_models'
p115
(dp116
g6
(dp117
g8
I0
sg9
S'madrona_unit_converter_models.html'
p118
sg11
S'madrona/unit_converter/models'
p119
sg13
g14
(g15
g16
NtRp120
(dp121
g19
I1
sg20
I0
sg21
I107
sg22
I0
sg23
I82
sg24
I0
sbssg25
S'\xed\xfc^\xf6\xf8\xe3\xca\xe2\xc0()\xee\x9d\xf0\x1f\x11'
p122
ssS'madrona_openid_admin'
p123
(dp124
g6
(dp125
g8
I0
sg9
S'madrona_openid_admin.html'
p126
sg11
S'madrona/openid/admin'
p127
sg13
g14
(g15
g16
NtRp128
(dp129
g19
I1
sg20
I0
sg21
I4
sg22
I0
sg23
I0
sg24
I0
sbssg25
S'$\xc7\x9d\x11\xed\x859\x17\x87c\xaf\xe4\x8d\xbc\xc6\xb4'
p130
ssS'madrona_raster_stats___init__'
p131
(dp132
g6
(dp133
g8
I0
sg9
S'madrona_raster_stats___init__.html'
p134
sg11
S'madrona/raster_stats/__init__'
p135
sg13
g14
(g15
g16
NtRp136
(dp137
g19
I1
sg20
I0
sg21
I0
sg22
I0
sg23
I0
sg24
I0
sbssg25
S'\xb0\xc8pN\xaf>\xa0\xbaz\x144\xe0A9\xb8?'
p138
ssS'madrona_user_profile_models'
p139
(dp140
g6
(dp141
g8
I0
sg9
S'madrona_user_profile_models.html'
p142
sg11
S'madrona/user_profile/models'
p143
sg13
g14
(g15
g16
NtRp144
(dp145
g19
I1
sg20
I0
sg21
I7
sg22
I0
sg23
I1
sg24
I0
sbssg25
S'\xde\x883#Cn\t\xa49\xfaS V\xdb\xec\n'
p146
ssS'madrona_common_registration_backend___init__'
p147
(dp148
g6
(dp149
g8
I0
sg9
S'madrona_common_registration_backend___init__.html'
p150
sg11
S'madrona/common/registration_backend/__init__'
p151
sg13
g14
(g15
g16
NtRp152
(dp153
g19
I1
sg20
I0
sg21
I29
sg22
I0
sg23
I14
sg24
I0
sbssg25
S'\xc3\xd5\xdd\xd657-\x12\x87f\x18\x8d;-\xff)'
p154
ssS'madrona_openid_forms'
p155
(dp156
g6
(dp157
g8
I0
sg9
S'madrona_openid_forms.html'
p158
sg11
S'madrona/openid/forms'
p159
sg13
g14
(g15
g16
NtRp160
(dp161
g19
I1
sg20
I0
sg21
I67
sg22
I0
sg23
I41
sg24
I0
sbssg25
S'\xd8\xc7Pv\xb0\xc8$\\\xe7r\x81(L5k\xc7'
p162
ssS'madrona_layers_admin'
p163
(dp164
g6
(dp165
g8
I0
sg9
S'madrona_layers_admin.html'
p166
sg11
S'madrona/layers/admin'
p167
sg13
g14
(g15
g16
NtRp168
(dp169
g19
I1
sg20
I0
sg21
I8
sg22
I0
sg23
I0
sg24
I0
sbssg25
S'\n\xc44\xabX\xac\x0f\xb4\xb6rd\x11^\xd8\x9e.'
p170
ssS'madrona_raster_stats_management___init__'
p171
(dp172
g6
(dp173
g8
I0
sg9
S'madrona_raster_stats_management___init__.html'
p174
sg11
S'madrona/raster_stats/management/__init__'
p175
sg13
g14
(g15
g16
NtRp176
(dp177
g19
I1
sg20
I0
sg21
I0
sg22
I0
sg23
I0
sg24
I0
sbssg25
S'\xb0\xc8pN\xaf>\xa0\xbaz\x144\xe0A9\xb8?'
p178
ssS'madrona_staticmap_urls'
p179
(dp180
g6
(dp181
g8
I0
sg9
S'madrona_staticmap_urls.html'
p182
sg11
S'madrona/staticmap/urls'
p183
sg13
g14
(g15
g16
NtRp184
(dp185
g19
I1
sg20
I0
sg21
I3
sg22
I0
sg23
I0
sg24
I0
sbssg25
S'\\\xb1\xdb\xf4s6q2\xdc\xfb\xc7\x84O\xaa\xa9\xd5'
p186
ssS'madrona_layers___init__'
p187
(dp188
g6
(dp189
g8
I0
sg9
S'madrona_layers___init__.html'
p190
sg11
S'madrona/layers/__init__'
p191
sg13
g14
(g15
g16
NtRp192
(dp193
g19
I1
sg20
I0
sg21
I0
sg22
I0
sg23
I0
sg24
I0
sbssg25
S'\xb0\xc8pN\xaf>\xa0\xbaz\x144\xe0A9\xb8?'
p194
ssS'madrona_raster_stats_admin'
p195
(dp196
g6
(dp197
g8
I0
sg9
S'madrona_raster_stats_admin.html'
p198
sg11
S'madrona/raster_stats/admin'
p199
sg13
g14
(g15
g16
NtRp200
(dp201
g19
I1
sg20
I0
sg21
I4
sg22
I0
sg23
I0
sg24
I0
sbssg25
S'm\xdb\xaaL\xf8\xb1\x0b\xa0\x12\x7fD\xfd\x13\xff\x92o'
p202
ssS'madrona_user_profile_urls'
p203
(dp204
g6
(dp205
g8
I0
sg9
S'madrona_user_profile_urls.html'
p206
sg11
S'madrona/user_profile/urls'
p207
sg13
g14
(g15
g16
NtRp208
(dp209
g19
I1
sg20
I0
sg21
I8
sg22
I0
sg23
I2
sg24
I0
sbssg25
S'\x97K\x1b\xf3ChD\xe8\x15bwa\xb1\xcf\xe3\xa7'
p210
ssS'madrona_layers_management___init__'
p211
(dp212
g6
(dp213
g8
I0
sg9
S'madrona_layers_management___init__.html'
p214
sg11
S'madrona/layers/management/__init__'
p215
sg13
g14
(g15
g16
NtRp216
(dp217
g19
I1
sg20
I0
sg21
I0
sg22
I0
sg23
I0
sg24
I0
sbssg25
S'\xb0\xc8pN\xaf>\xa0\xbaz\x144\xe0A9\xb8?'
p218
ssS'madrona_features_forms'
p219
(dp220
g6
(dp221
g8
I0
sg9
S'madrona_features_forms.html'
p222
sg11
S'madrona/features/forms'
p223
sg13
g14
(g15
g16
NtRp224
(dp225
g19
I1
sg20
I0
sg21
I39
sg22
I0
sg23
I19
sg24
I0
sbssg25
S'\xa9\xab\xdc\x1bA\x8fe\xaa8\xad\xec\xc7\xc3f\xfa\x1d'
p226
ssS'madrona_openid_views'
p227
(dp228
g6
(dp229
g8
I0
sg9
S'madrona_openid_views.html'
p230
sg11
S'madrona/openid/views'
p231
sg13
g14
(g15
g16
NtRp232
(dp233
g19
I1
sg20
I0
sg21
I292
sg22
I0
sg23
I233
sg24
I0
sbssg25
S'$fg\xf8\xdc\xe0\xc5>\xf6\x1b\x8c\xee,sjU'
p234
ssS'madrona_common_admin'
p235
(dp236
g6
(dp237
g8
I0
sg9
S'madrona_common_admin.html'
p238
sg11
S'madrona/common/admin'
p239
sg13
g14
(g15
g16
NtRp240
(dp241
g19
I1
sg20
I0
sg21
I62
sg22
I0
sg23
I22
sg24
I0
sbssg25
S'\x88\xb3\xe3\xba\xd2\x82\xd2)\x95\xda\x17lz\xd7\xa1p'
p242
ssS'madrona_simplefaq___init__'
p243
(dp244
g6
(dp245
g8
I0
sg9
S'madrona_simplefaq___init__.html'
p246
sg11
S'madrona/simplefaq/__init__'
p247
sg13
g14
(g15
g16
NtRp248
(dp249
g19
I1
sg20
I0
sg21
I0
sg22
I0
sg23
I0
sg24
I0
sbssg25
S'\xb0\xc8pN\xaf>\xa0\xbaz\x144\xe0A9\xb8?'
p250
ssS'madrona_news_models'
p251
(dp252
g6
(dp253
g8
I0
sg9
S'madrona_news_models.html'
p254
sg11
S'madrona/news/models'
p255
sg13
g14
(g15
g16
NtRp256
(dp257
g19
I1
sg20
I0
sg21
I33
sg22
I0
sg23
I8
sg24
I0
sbssg25
S'\x03\x08_\x14\xce\xe1n(\xf2\x0c\xe3e\x17\xb1\x10('
p258
ssS'madrona_layers_models'
p259
(dp260
g6
(dp261
g8
I0
sg9
S'madrona_layers_models.html'
p262
sg11
S'madrona/layers/models'
p263
sg13
g14
(g15
g16
NtRp264
(dp265
g19
I1
sg20
I0
sg21
I55
sg22
I0
sg23
I19
sg24
I0
sbssg25
S'~HB\xabp[)\xbd\x00\x98\xf7\xcb}\xd5e\xab'
p266
ssS'madrona_openid_utils_mimeparse'
p267
(dp268
g6
(dp269
g8
I0
sg9
S'madrona_openid_utils_mimeparse.html'
p270
sg11
S'madrona/openid/utils/mimeparse'
p271
sg13
g14
(g15
g16
NtRp272
(dp273
g19
I1
sg20
I0
sg21
I70
sg22
I0
sg23
I60
sg24
I0
sbssg25
S'\x18\xdc\\\xed\xad\x8a\xc2\x0c\x8c\x0b6\nt\xa1\x0b\xaf'
p274
ssS'madrona_common_middleware'
p275
(dp276
g6
(dp277
g8
I0
sg9
S'madrona_common_middleware.html'
p278
sg11
S'madrona/common/middleware'
p279
sg13
g14
(g15
g16
NtRp280
(dp281
g19
I1
sg20
I0
sg21
I13
sg22
I0
sg23
I5
sg24
I0
sbssg25
S"\x85\xf2\xca\x8f\xd9J!\xbe'D\xb5\x03\xbeH69"
p282
ssS'madrona_help_models'
p283
(dp284
g6
(dp285
g8
I0
sg9
S'madrona_help_models.html'
p286
sg11
S'madrona/help/models'
p287
sg13
g14
(g15
g16
NtRp288
(dp289
g19
I1
sg20
I0
sg21
I0
sg22
I0
sg23
I0
sg24
I0
sbssg25
S'\x98\xab\x85-.G\\\xe5\xc0\x1f\xcdcvk*g'
p290
ssS'madrona_layer_manager_views'
p291
(dp292
g6
(dp293
g8
I0
sg9
S'madrona_layer_manager_views.html'
p294
sg11
S'madrona/layer_manager/views'
p295
sg13
g14
(g15
g16
NtRp296
(dp297
g19
I1
sg20
I0
sg21
I13
sg22
I0
sg23
I6
sg24
I0
sbssg25
S'\xd8\x1d*\x1e\x9b\x1ai0\xa0\x9c\xd7\xb6\x10\xd18m'
p298
ssS'madrona_studyregion_urls'
p299
(dp300
g6
(dp301
g8
I0
sg9
S'madrona_studyregion_urls.html'
p302
sg11
S'madrona/studyregion/urls'
p303
sg13
g14
(g15
g16
NtRp304
(dp305
g19
I1
sg20
I0
sg21
I2
sg22
I0
sg23
I0
sg24
I0
sbssg25
S'\xc4\xe6\xef\xbb\xae\x10\x96m\x8a\xdf\xea"\x973\xb8\xd6'
p306
ssS'madrona_xyquery_models'
p307
(dp308
g6
(dp309
g8
I0
sg9
S'madrona_xyquery_models.html'
p310
sg11
S'madrona/xyquery/models'
p311
sg13
g14
(g15
g16
NtRp312
(dp313
g19
I1
sg20
I0
sg21
I28
sg22
I0
sg23
I5
sg24
I0
sbssg25
S'ta\xafY\x0f\xf3\x0e\x0e\xbdp+\xb2\xe1\xcd\xa7m'
p314
ssS'madrona_async___init__'
p315
(dp316
g6
(dp317
g8
I0
sg9
S'madrona_async___init__.html'
p318
sg11
S'madrona/async/__init__'
p319
sg13
g14
(g15
g16
NtRp320
(dp321
g19
I1
sg20
I0
sg21
I0
sg22
I0
sg23
I0
sg24
I0
sbssg25
S'\xb0\xc8pN\xaf>\xa0\xbaz\x144\xe0A9\xb8?'
p322
ssS'madrona_screencasts_models'
p323
(dp324
g6
(dp325
g8
I0
sg9
S'madrona_screencasts_models.html'
p326
sg11
S'madrona/screencasts/models'
p327
sg13
g14
(g15
g16
NtRp328
(dp329
g19
I1
sg20
I0
sg21
I28
sg22
I0
sg23
I2
sg24
I0
sbssg25
S'\x0eZN\xb3\xb2N\x9f$\xaaY\xcb\xfb\xe8ga\t'
p330
ssS'madrona_common_urls'
p331
(dp332
g6
(dp333
g8
I0
sg9
S'madrona_common_urls.html'
p334
sg11
S'madrona/common/urls'
p335
sg13
g14
(g15
g16
NtRp336
(dp337
g19
I1
sg20
I0
sg21
I9
sg22
I0
sg23
I1
sg24
I0
sbssg25
S'M+2P\t\x05,\x80\xc1t\xd3\xde\x8fCt$'
p338
ssS'madrona_xyquery_management___init__'
p339
(dp340
g6
(dp341
g8
I0
sg9
S'madrona_xyquery_management___init__.html'
p342
sg11
S'madrona/xyquery/management/__init__'
p343
sg13
g14
(g15
g16
NtRp344
(dp345
g19
I1
sg20
I0
sg21
I0
sg22
I0
sg23
I0
sg24
I0
sbssg25
S'\xb0\xc8pN\xaf>\xa0\xbaz\x144\xe0A9\xb8?'
p346
ssS'madrona_async_models'
p347
(dp348
g6
(dp349
g8
I0
sg9
S'madrona_async_models.html'
p350
sg11
S'madrona/async/models'
p351
sg13
g14
(g15
g16
NtRp352
(dp353
g19
I1
sg20
I0
sg21
I5
sg22
I0
sg23
I0
sg24
I0
sbssg25
S'\xa0\xd2\xe5\xeb;\x81\xea\xc8kP9\xd3w\xc2X,'
p354
ssS'madrona_loadshp___init__'
p355
(dp356
g6
(dp357
g8
I0
sg9
S'madrona_loadshp___init__.html'
p358
sg11
S'madrona/loadshp/__init__'
p359
sg13
g14
(g15
g16
NtRp360
(dp361
g19
I1
sg20
I0
sg21
I0
sg22
I0
sg23
I0
sg24
I0
sbssg25
S'\xc9\xa1\xe7<\xcb)p\xca<\xdd\xa46d\xfb\xe4\x8c'
p362
ssS'madrona_common_models'
p363
(dp364
g6
(dp365
g8
I0
sg9
S'madrona_common_models.html'
p366
sg11
S'madrona/common/models'
p367
sg13
g14
(g15
g16
NtRp368
(dp369
g19
I1
sg20
I0
sg21
I6
sg22
I0
sg23
I1
sg24
I0
sbssg25
S'#,\x1a\xde\xe1\xa9\xda\x8dBl<\xfc\xb9\xb5X['
p370
ssS'madrona_features_urls'
p371
(dp372
g6
(dp373
g8
I0
sg9
S'madrona_features_urls.html'
p374
sg11
S'madrona/features/urls'
p375
sg13
g14
(g15
g16
NtRp376
(dp377
g19
I1
sg20
I0
sg21
I17
sg22
I0
sg23
I0
sg24
I0
sbssg25
S'\xc1\xa6\xab\x08+\x97\xf7e^\x07i\x1cd\r\x07\xeb'
p378
ssS'madrona_xyquery___init__'
p379
(dp380
g6
(dp381
g8
I0
sg9
S'madrona_xyquery___init__.html'
p382
sg11
S'madrona/xyquery/__init__'
p383
sg13
g14
(g15
g16
NtRp384
(dp385
g19
I1
sg20
I0
sg21
I0
sg22
I0
sg23
I0
sg24
I0
sbssg25
S'\xb0\xc8pN\xaf>\xa0\xbaz\x144\xe0A9\xb8?'
p386
ssS'madrona_simplefaq_admin'
p387
(dp388
g6
(dp389
g8
I0
sg9
S'madrona_simplefaq_admin.html'
p390
sg11
S'madrona/simplefaq/admin'
p391
sg13
g14
(g15
g16
NtRp392
(dp393
g19
I1
sg20
I0
sg21
I7
sg22
I0
sg23
I0
sg24
I0
sbssg25
S'KKK\xb6\x13\x8e\xed3\x1de\x9f\x80H\xc2\xde\xfc'
p394
ssS'madrona_manipulators___init__'
p395
(dp396
g6
(dp397
g8
I0
sg9
S'madrona_manipulators___init__.html'
p398
sg11
S'madrona/manipulators/__init__'
p399
sg13
g14
(g15
g16
NtRp400
(dp401
g19
I1
sg20
I0
sg21
I0
sg22
I0
sg23
I0
sg24
I0
sbssg25
S'\xb0\xc8pN\xaf>\xa0\xbaz\x144\xe0A9\xb8?'
p402
ssS'madrona_openid_management___init__'
p403
(dp404
g6
(dp405
g8
I0
sg9
S'madrona_openid_management___init__.html'
p406
sg11
S'madrona/openid/management/__init__'
p407
sg13
g14
(g15
g16
NtRp408
(dp409
g19
I1
sg20
I0
sg21
I0
sg22
I0
sg23
I0
sg24
I0
sbssg25
S'\xb0\xc8pN\xaf>\xa0\xbaz\x144\xe0A9\xb8?'
p410
ssS'madrona_heatmap___init__'
p411
(dp412
g6
(dp413
g8
I0
sg9
S'madrona_heatmap___init__.html'
p414
sg11
S'madrona/heatmap/__init__'
p415
sg13
g14
(g15
g16
NtRp416
(dp417
g19
I1
sg20
I0
sg21
I0
sg22
I0
sg23
I0
sg24
I0
sbssg25
S'\xb0\xc8pN\xaf>\xa0\xbaz\x144\xe0A9\xb8?'
p418
ssS'madrona_studyregion___init__'
p419
(dp420
g6
(dp421
g8
I0
sg9
S'madrona_studyregion___init__.html'
p422
sg11
S'madrona/studyregion/__init__'
p423
sg13
g14
(g15
g16
NtRp424
(dp425
g19
I1
sg20
I0
sg21
I0
sg22
I0
sg23
I0
sg24
I0
sbssg25
S'\xb0\xc8pN\xaf>\xa0\xbaz\x144\xe0A9\xb8?'
p426
ssS'madrona_group_management___init__'
p427
(dp428
g6
(dp429
g8
I0
sg9
S'madrona_group_management___init__.html'
p430
sg11
S'madrona/group_management/__init__'
p431
sg13
g14
(g15
g16
NtRp432
(dp433
g19
I1
sg20
I0
sg21
I0
sg22
I0
sg23
I0
sg24
I0
sbssg25
S'\xb0\xc8pN\xaf>\xa0\xbaz\x144\xe0A9\xb8?'
p434
ssS'madrona_staticmap___init__'
p435
(dp436
g6
(dp437
g8
I0
sg9
S'madrona_staticmap___init__.html'
p438
sg11
S'madrona/staticmap/__init__'
p439
sg13
g14
(g15
g16
NtRp440
(dp441
g19
I1
sg20
I0
sg21
I0
sg22
I0
sg23
I0
sg24
I0
sbssg25
S'\xb0\xc8pN\xaf>\xa0\xbaz\x144\xe0A9\xb8?'
p442
ssS'madrona_simplefaq_views'
p443
(dp444
g6
(dp445
g8
I0
sg9
S'madrona_simplefaq_views.html'
p446
sg11
S'madrona/simplefaq/views'
p447
sg13
g14
(g15
g16
NtRp448
(dp449
g19
I1
sg20
I0
sg21
I11
sg22
I0
sg23
I6
sg24
I0
sbssg25
S'\xd5/)\xac9L\xe5\xd4UFaP{\xa7\xd2Q'
p450
ssS'madrona_shapes_views___init__'
p451
(dp452
g6
(dp453
g8
I0
sg9
S'madrona_shapes_views___init__.html'
p454
sg11
S'madrona/shapes/views/__init__'
p455
sg13
g14
(g15
g16
NtRp456
(dp457
g19
I1
sg20
I0
sg21
I2
sg22
I0
sg23
I0
sg24
I0
sbssg25
S'mst\x13\x97\xfb\x8c/\x98\xb8r\xcca\x06\xfc+'
p458
ssS'madrona_screencasts___init__'
p459
(dp460
g6
(dp461
g8
I0
sg9
S'madrona_screencasts___init__.html'
p462
sg11
S'madrona/screencasts/__init__'
p463
sg13
g14
(g15
g16
NtRp464
(dp465
g19
I1
sg20
I0
sg21
I0
sg22
I0
sg23
I0
sg24
I0
sbssg25
S'\xb0\xc8pN\xaf>\xa0\xbaz\x144\xe0A9\xb8?'
p466
ssS'madrona_shapes_forms'
p467
(dp468
g6
(dp469
g8
I0
sg9
S'madrona_shapes_forms.html'
p470
sg11
S'madrona/shapes/forms'
p471
sg13
g14
(g15
g16
NtRp472
(dp473
g19
I1
sg20
I0
sg21
I65
sg22
I0
sg23
I49
sg24
I0
sbssg25
S'\x03\xb7\xa4\xf5\xef\xbdp\x8ds\xe8\x10\xcb\xa5\x9b\xc7\xc7'
p474
ssS'madrona_studyregion_models'
p475
(dp476
g6
(dp477
g8
I0
sg9
S'madrona_studyregion_models.html'
p478
sg11
S'madrona/studyregion/models'
p479
sg13
g14
(g15
g16
NtRp480
(dp481
g19
I1
sg20
I0
sg21
I94
sg22
I0
sg23
I63
sg24
I0
sbssg25
S'\x13e\x15=W\xba\x8a\x1b\xcb\xaab\x81\r,8\xf0'
p482
ssS'madrona_loadshp_urls'
p483
(dp484
g6
(dp485
g8
I0
sg9
S'madrona_loadshp_urls.html'
p486
sg11
S'madrona/loadshp/urls'
p487
sg13
g14
(g15
g16
NtRp488
(dp489
g19
I1
sg20
I0
sg21
I2
sg22
I0
sg23
I0
sg24
I0
sbssg25
S'b\xcdU\x13\xc95`\xad\xf8\x1b\xecb\xb0B\rT'
p490
ssS'madrona_layer_manager___init__'
p491
(dp492
g6
(dp493
g8
I0
sg9
S'madrona_layer_manager___init__.html'
p494
sg11
S'madrona/layer_manager/__init__'
p495
sg13
g14
(g15
g16
NtRp496
(dp497
g19
I1
sg20
I0
sg21
I0
sg22
I0
sg23
I0
sg24
I0
sbssg25
S'\xb0\xc8pN\xaf>\xa0\xbaz\x144\xe0A9\xb8?'
p498
ssS'madrona_screencasts_admin'
p499
(dp500
g6
(dp501
g8
I0
sg9
S'madrona_screencasts_admin.html'
p502
sg11
S'madrona/screencasts/admin'
p503
sg13
g14
(g15
g16
NtRp504
(dp505
g19
I1
sg20
I0
sg21
I6
sg22
I0
sg23
I0
sg24
I0
sbssg25
S'\x98a9\xc7\x80<\xd0fh\xc7\x7f|P\x81\xc09'
p506
ssS'madrona_news___init__'
p507
(dp508
g6
(dp509
g8
I0
sg9
S'madrona_news___init__.html'
p510
sg11
S'madrona/news/__init__'
p511
sg13
g14
(g15
g16
NtRp512
(dp513
g19
I1
sg20
I0
sg21
I0
sg22
I0
sg23
I0
sg24
I0
sbssg25
S'\xb0\xc8pN\xaf>\xa0\xbaz\x144\xe0A9\xb8?'
p514
ssS'madrona_user_profile___init__'
p515
(dp516
g6
(dp517
g8
I0
sg9
S'madrona_user_profile___init__.html'
p518
sg11
S'madrona/user_profile/__init__'
p519
sg13
g14
(g15
g16
NtRp520
(dp521
g19
I1
sg20
I0
sg21
I0
sg22
I0
sg23
I0
sg24
I0
sbssg25
S'\xb0\xc8pN\xaf>\xa0\xbaz\x144\xe0A9\xb8?'
p522
ssS'madrona_features_management___init__'
p523
(dp524
g6
(dp525
g8
I0
sg9
S'madrona_features_management___init__.html'
p526
sg11
S'madrona/features/management/__init__'
p527
sg13
g14
(g15
g16
NtRp528
(dp529
g19
I1
sg20
I0
sg21
I0
sg22
I0
sg23
I0
sg24
I0
sbssg25
S'\xb0\xc8pN\xaf>\xa0\xbaz\x144\xe0A9\xb8?'
p530
ssS'madrona_xyquery_admin'
p531
(dp532
g6
(dp533
g8
I0
sg9
S'madrona_xyquery_admin.html'
p534
sg11
S'madrona/xyquery/admin'
p535
sg13
g14
(g15
g16
NtRp536
(dp537
g19
I1
sg20
I0
sg21
I14
sg22
I0
sg23
I0
sg24
I0
sbssg25
S'\xac\x03\x9f\xe9\xb2b\xb6B\x99\xc4\xd6"e\x9eX\xb3'
p538
ssS'madrona_shapes_views_export'
p539
(dp540
g6
(dp541
g8
I0
sg9
S'madrona_shapes_views_export.html'
p542
sg11
S'madrona/shapes/views/export'
p543
sg13
g14
(g15
g16
NtRp544
(dp545
g19
I1
sg20
I0
sg21
I99
sg22
I0
sg23
I86
sg24
I0
sbssg25
S'r\x9d\x13\x19\xe5:\x8e\x00\xeb\xa4\xdd\x0b\xa2\xa6\x84O'
p546
ssS'madrona_openid___init__'
p547
(dp548
g6
(dp549
g8
I0
sg9
S'madrona_openid___init__.html'
p550
sg11
S'madrona/openid/__init__'
p551
sg13
g14
(g15
g16
NtRp552
(dp553
g19
I1
sg20
I0
sg21
I25
sg22
I0
sg23
I8
sg24
I0
sbssg25
S'\x08\xe2\xe1\x98kz)$)X\xe1\xe1g\x8cj\xcf'
p554
ssS'madrona_group_management_admin'
p555
(dp556
g6
(dp557
g8
I0
sg9
S'madrona_group_management_admin.html'
p558
sg11
S'madrona/group_management/admin'
p559
sg13
g14
(g15
g16
NtRp560
(dp561
g19
I1
sg20
I0
sg21
I5
sg22
I0
sg23
I0
sg24
I0
sbssg25
S'2\xe2\x0c\x15>\x1f\x1e\x10\xc4\xc6y\x1f_Y?l'
p562
ssS'madrona_openid_signals'
p563
(dp564
g6
(dp565
g8
I0
sg9
S'madrona_openid_signals.html'
p566
sg11
S'madrona/openid/signals'
p567
sg13
g14
(g15
g16
NtRp568
(dp569
g19
I1
sg20
I0
sg21
I3
sg22
I0
sg23
I0
sg24
I0
sbssg25
S'\x06\x83\x869\x9eBT\x9d\t`\x95\xf3Jtq\xb2'
p570
ssS'madrona_simplefaq_urls'
p571
(dp572
g6
(dp573
g8
I0
sg9
S'madrona_simplefaq_urls.html'
p574
sg11
S'madrona/simplefaq/urls'
p575
sg13
g14
(g15
g16
NtRp576
(dp577
g19
I1
sg20
I0
sg21
I3
sg22
I0
sg23
I0
sg24
I0
sbssg25
S'aM7\xed\\\xbf\t\x94"\x14\x12\x04\xad\x03\x1d\xc2'
p578
ssS'madrona_kmlapp_models'
p579
(dp580
g6
(dp581
g8
I0
sg9
S'madrona_kmlapp_models.html'
p582
sg11
S'madrona/kmlapp/models'
p583
sg13
g14
(g15
g16
NtRp584
(dp585
g19
I1
sg20
I0
sg21
I1
sg22
I0
sg23
I0
sg24
I0
sbssg25
S'\xd6L\xb8\xbdB\n\xefe\xa68\xebv\xbb\xe0\x1cm'
p586
ssS'madrona_google-analytics_models'
p587
(dp588
g6
(dp589
g8
I0
sg9
S'madrona_google-analytics_models.html'
p590
sg11
S'madrona/google-analytics/models'
p591
sg13
g14
(g15
g16
NtRp592
(dp593
g19
I1
sg20
I0
sg21
I9
sg22
I0
sg23
I1
sg24
I0
sbssg25
S'\xac\xb9\xe68\x19V\xdbwU&\xac\xd0\xd2\x9b\xbf\xaa'
p594
ssS'madrona_help_urls'
p595
(dp596
g6
(dp597
g8
I0
sg9
S'madrona_help_urls.html'
p598
sg11
S'madrona/help/urls'
p599
sg13
g14
(g15
g16
NtRp600
(dp601
g19
I1
sg20
I0
sg21
I2
sg22
I0
sg23
I0
sg24
I0
sbssg25
S'\xbaB(\x9dM\xabOu\xf6\xf4\x893\x9f\xfe#b'
p602
ssS'madrona_heatmap_views'
p603
(dp604
g6
(dp605
g8
I0
sg9
S'madrona_heatmap_views.html'
p606
sg11
S'madrona/heatmap/views'
p607
sg13
g14
(g15
g16
NtRp608
(dp609
g19
I1
sg20
I0
sg21
I90
sg22
I0
sg23
I80
sg24
I0
sbssg25
S'j\xf1\xe7\x07[\x97d4\x03w\xb0a\x17\x8f)x'
p610
ssS'madrona_loadshp_models'
p611
(dp612
g6
(dp613
g8
I0
sg9
S'madrona_loadshp_models.html'
p614
sg11
S'madrona/loadshp/models'
p615
sg13
g14
(g15
g16
NtRp616
(dp617
g19
I1
sg20
I0
sg21
I0
sg22
I0
sg23
I0
sg24
I0
sbssg25
S'!\xbe\x06L\t\xb9\x06\t\t5J\xce\xfcS\x98\xa8'
p618
ssS'madrona_group_management_models'
p619
(dp620
g6
(dp621
g8
I0
sg9
S'madrona_group_management_models.html'
p622
sg11
S'madrona/group_management/models'
p623
sg13
g14
(g15
g16
NtRp624
(dp625
g19
I1
sg20
I0
sg21
I9
sg22
I0
sg23
I1
sg24
I0
sbssg25
S'\xe3i\xdf\x1f\x8e\xfb7\xedU>\xbc\xe3[n@\x83'
p626
ssS'madrona_shapes_views_upload'
p627
(dp628
g6
(dp629
g8
I0
sg9
S'madrona_shapes_views_upload.html'
p630
sg11
S'madrona/shapes/views/upload'
p631
sg13
g14
(g15
g16
NtRp632
(dp633
g19
I1
sg20
I0
sg21
I11
sg22
I0
sg23
I7
sg24
I0
sbssg25
S'1\xf8]\xa1\x94\xbb\x0fK\x87Pm\xc2\x153&\x82'
p634
ssS'madrona_staticmap_models'
p635
(dp636
g6
(dp637
g8
I0
sg9
S'madrona_staticmap_models.html'
p638
sg11
S'madrona/staticmap/models'
p639
sg13
g14
(g15
g16
NtRp640
(dp641
g19
I1
sg20
I0
sg21
I13
sg22
I0
sg23
I1
sg24
I0
sbssg25
S'P\xb8\x7f\xfe\x80C\xc4\xb9\x8ee8\x821\x0e\xb60'
p642
ssS'madrona_help___init__'
p643
(dp644
g6
(dp645
g8
I0
sg9
S'madrona_help___init__.html'
p646
sg11
S'madrona/help/__init__'
p647
sg13
g14
(g15
g16
NtRp648
(dp649
g19
I1
sg20
I0
sg21
I0
sg22
I0
sg23
I0
sg24
I0
sbssg25
S'\xb0\xc8pN\xaf>\xa0\xbaz\x144\xe0A9\xb8?'
p650
ssS'madrona_layers_urls'
p651
(dp652
g6
(dp653
g8
I0
sg9
S'madrona_layers_urls.html'
p654
sg11
S'madrona/layers/urls'
p655
sg13
g14
(g15
g16
NtRp656
(dp657
g19
I1
sg20
I0
sg21
I3
sg22
I0
sg23
I0
sg24
I0
sbssg25
S'\x03\x85,\xcc\x15\xcb\x0b\x99\x84\x97\xc9\x8d^\xae_\xf8'
p658
ssS'madrona_features___init__'
p659
(dp660
g6
(dp661
g8
I0
sg9
S'madrona_features___init__.html'
p662
sg11
S'madrona/features/__init__'
p663
sg13
g14
(g15
g16
NtRp664
(dp665
g19
I1
sg20
I0
sg21
I363
sg22
I0
sg23
I184
sg24
I0
sbssg25
S'#J\xb510?\xb5{\x1e34k\xadO\xc0\xaf'
p666
ssS'madrona_analysistools___init__'
p667
(dp668
g6
(dp669
g8
I0
sg9
S'madrona_analysistools___init__.html'
p670
sg11
S'madrona/analysistools/__init__'
p671
sg13
g14
(g15
g16
NtRp672
(dp673
g19
I1
sg20
I0
sg21
I0
sg22
I0
sg23
I0
sg24
I0
sbssg25
S'\xb0\xc8pN\xaf>\xa0\xbaz\x144\xe0A9\xb8?'
p674
ssS'madrona_version'
p675
(dp676
g6
(dp677
g8
I0
sg9
S'madrona_version.html'
p678
sg11
S'madrona/version'
p679
sg13
g14
(g15
g16
NtRp680
(dp681
g19
I1
sg20
I0
sg21
I1
sg22
I0
sg23
I0
sg24
I0
sbssg25
S"@'\nU\xb8y\xdbEr\xdd\n\x9f) \xbeb"
p682
ssS'madrona_raster_stats_models'
p683
(dp684
g6
(dp685
g8
I0
sg9
S'madrona_raster_stats_models.html'
p686
sg11
S'madrona/raster_stats/models'
p687
sg13
g14
(g15
g16
NtRp688
(dp689
g19
I1
sg20
I0
sg21
I142
sg22
I0
sg23
I93
sg24
I0
sbssg25
S"}'\xeeT\x9a\x8f\x18\xcf\xce\xbe&\x8d*\x08\x0f\xdc"
p690
ssS'madrona_screencasts_urls'
p691
(dp692
g6
(dp693
g8
I0
sg9
S'madrona_screencasts_urls.html'
p694
sg11
S'madrona/screencasts/urls'
p695
sg13
g14
(g15
g16
NtRp696
(dp697
g19
I1
sg20
I0
sg21
I2
sg22
I0
sg23
I0
sg24
I0
sbssg25
S'\x1e\x96\x9d\x1a\t\x08\x1aES#\xe2\xd7\xf7K\xe4\x04'
p698
ssS'madrona_unit_converter___init__'
p699
(dp700
g6
(dp701
g8
I0
sg9
S'madrona_unit_converter___init__.html'
p702
sg11
S'madrona/unit_converter/__init__'
p703
sg13
g14
(g15
g16
NtRp704
(dp705
g19
I1
sg20
I0
sg21
I0
sg22
I0
sg23
I0
sg24
I0
sbssg25
S'\xb0\xc8pN\xaf>\xa0\xbaz\x144\xe0A9\xb8?'
p706
ssS'madrona_common_registration_backend_forms'
p707
(dp708
g6
(dp709
g8
I0
sg9
S'madrona_common_registration_backend_forms.html'
p710
sg11
S'madrona/common/registration_backend/forms'
p711
sg13
g14
(g15
g16
NtRp712
(dp713
g19
I1
sg20
I0
sg21
I5
sg22
I0
sg23
I0
sg24
I0
sbssg25
S'\x90n\xa3Z\xb0\xf1m\xc3\xe6(e\x12 9\xd5~'
p714
ssS'madrona_openid_utils___init__'
p715
(dp716
g6
(dp717
g8
I0
sg9
S'madrona_openid_utils___init__.html'
p718
sg11
S'madrona/openid/utils/__init__'
p719
sg13
g14
(g15
g16
NtRp720
(dp721
g19
I1
sg20
I0
sg21
I64
sg22
I0
sg23
I45
sg24
I0
sbssg25
S'9F\xed\x7fa\xb6\xf2\x05\x95\x12\xb9\xcd\xb4\xc4\xe1V'
p722
ssS'madrona_common_assets'
p723
(dp724
g6
(dp725
g8
I0
sg9
S'madrona_common_assets.html'
p726
sg11
S'madrona/common/assets'
p727
sg13
g14
(g15
g16
NtRp728
(dp729
g19
I1
sg20
I0
sg21
I24
sg22
I0
sg23
I0
sg24
I0
sbssg25
S"<\x88\xfa/\x08'\t-\xf0m\xceC\x9aF\x0eu"
p730
ssS'madrona_studyregion_management___init__'
p731
(dp732
g6
(dp733
g8
I0
sg9
S'madrona_studyregion_management___init__.html'
p734
sg11
S'madrona/studyregion/management/__init__'
p735
sg13
g14
(g15
g16
NtRp736
(dp737
g19
I1
sg20
I0
sg21
I0
sg22
I0
sg23
I0
sg24
I0
sbssg25
S'\xb0\xc8pN\xaf>\xa0\xbaz\x144\xe0A9\xb8?'
p738
ssS'madrona_layer_manager_urls'
p739
(dp740
g6
(dp741
g8
I0
sg9
S'madrona_layer_manager_urls.html'
p742
sg11
S'madrona/layer_manager/urls'
p743
sg13
g14
(g15
g16
NtRp744
(dp745
g19
I1
sg20
I0
sg21
I3
sg22
I0
sg23
I0
sg24
I0
sbssg25
S'6\xc8\xda\xa8i\xf16\xabc#QdI\x14\x9a#'
p746
ssS'madrona_staticmap_admin'
p747
(dp748
g6
(dp749
g8
I0
sg9
S'madrona_staticmap_admin.html'
p750
sg11
S'madrona/staticmap/admin'
p751
sg13
g14
(g15
g16
NtRp752
(dp753
g19
I1
sg20
I0
sg21
I5
sg22
I0
sg23
I0
sg24
I0
sbssg25
S"\nA\x04h\x07mg\xca\x03'X!x/\x90\xbc"
p754
ssS'madrona_news_admin'
p755
(dp756
g6
(dp757
g8
I0
sg9
S'madrona_news_admin.html'
p758
sg11
S'madrona/news/admin'
p759
sg13
g14
(g15
g16
NtRp760
(dp761
g19
I1
sg20
I0
sg21
I10
sg22
I0
sg23
I0
sg24
I0
sbssg25
S'u\x1a\xbf\x06\xbc/\xc9\x93\x11\xb5\x14\xf2}\xa7\xa7\x14'
p762
ssS'madrona_common_default_settings'
p763
(dp764
g6
(dp765
g8
I0
sg9
S'madrona_common_default_settings.html'
p766
sg11
S'madrona/common/default_settings'
p767
sg13
g14
(g15
g16
NtRp768
(dp769
g19
I1
sg20
I0
sg21
I76
sg22
I0
sg23
I26
sg24
I0
sbssg25
S'l\x16\xdd\xc7\xedT\x05\xc4\x1a.U\xe4Y\xcf-*'
p770
ssS'madrona_heatmap_models'
p771
(dp772
g6
(dp773
g8
I0
sg9
S'madrona_heatmap_models.html'
p774
sg11
S'madrona/heatmap/models'
p775
sg13
g14
(g15
g16
NtRp776
(dp777
g19
I1
sg20
I0
sg21
I77
sg22
I0
sg23
I63
sg24
I0
sbssg25
S',\x00|F\x92\xb8B\x964\xc9&\r\xaf\xdd\x11\xb2'
p778
ssS'madrona_layer_manager_admin'
p779
(dp780
g6
(dp781
g8
I0
sg9
S'madrona_layer_manager_admin.html'
p782
sg11
S'madrona/layer_manager/admin'
p783
sg13
g14
(g15
g16
NtRp784
(dp785
g19
I1
sg20
I0
sg21
I8
sg22
I0
sg23
I0
sg24
I0
sbssg25
S'\x87\t\xd9\x8b\xc2\xf3\xd7\xd0D\x9b\xf21"u8\x1c'
p786
ssS'madrona_common___init__'
p787
(dp788
g6
(dp789
g8
I0
sg9
S'madrona_common___init__.html'
p790
sg11
S'madrona/common/__init__'
p791
sg13
g14
(g15
g16
NtRp792
(dp793
g19
I1
sg20
I0
sg21
I0
sg22
I0
sg23
I0
sg24
I0
sbssg25
S'\xb0\xc8pN\xaf>\xa0\xbaz\x144\xe0A9\xb8?'
p794
ssS'madrona_google-analytics_admin'
p795
(dp796
g6
(dp797
g8
I0
sg9
S'madrona_google-analytics_admin.html'
p798
sg11
S'madrona/google-analytics/admin'
p799
sg13
g14
(g15
g16
NtRp800
(dp801
g19
I1
sg20
I0
sg21
I14
sg22
I0
sg23
I0
sg24
I0
sbssg25
S'\xf5o\x02\x98T\xfb\xfa\xcb\n\xc8\xda\xf3-{}b'
p802
ssS'madrona_kmlapp___init__'
p803
(dp804
g6
(dp805
g8
I0
sg9
S'madrona_kmlapp___init__.html'
p806
sg11
S'madrona/kmlapp/__init__'
p807
sg13
g14
(g15
g16
NtRp808
(dp809
g19
I1
sg20
I0
sg21
I0
sg22
I0
sg23
I0
sg24
I0
sbssg25
S'\xb0\xc8pN\xaf>\xa0\xbaz\x144\xe0A9\xb8?'
p810
ssS'madrona___init__'
p811
(dp812
g6
(dp813
g8
I0
sg9
S'madrona___init__.html'
p814
sg11
S'madrona/__init__'
p815
sg13
g14
(g15
g16
NtRp816
(dp817
g19
I1
sg20
I0
sg21
I16
sg22
I0
sg23
I4
sg24
I0
sbssg25
S'%\xf02\x7f\xda\xa8\xa9\xc4?PzO\x8c\xdb\x14\x17'
p818
ssS'madrona_common_default_mimetypes'
p819
(dp820
g6
(dp821
g8
I0
sg9
S'madrona_common_default_mimetypes.html'
p822
sg11
S'madrona/common/default_mimetypes'
p823
sg13
g14
(g15
g16
NtRp824
(dp825
g19
I1
sg20
I0
sg21
I3
sg22
I0
sg23
I0
sg24
I0
sbssg25
S'\xa6\xad\x05/\x00\xd3n,i\xef\x96jO\r\x05\x1e'
p826
ssS'madrona_kmlapp_urls'
p827
(dp828
g6
(dp829
g8
I0
sg9
S'madrona_kmlapp_urls.html'
p830
sg11
S'madrona/kmlapp/urls'
p831
sg13
g14
(g15
g16
NtRp832
(dp833
g19
I1
sg20
I0
sg21
I2
sg22
I0
sg23
I0
sg24
I0
sbssg25
S'\xf6`\xaa\xc8`$\xfe0\xd3i\x95o\xadR\xcbd'
p834
ssS'madrona_bookmarks___init__'
p835
(dp836
g6
(dp837
g8
I0
sg9
S'madrona_bookmarks___init__.html'
p838
sg11
S'madrona/bookmarks/__init__'
p839
sg13
g14
(g15
g16
NtRp840
(dp841
g19
I1
sg20
I0
sg21
I0
sg22
I0
sg23
I0
sg24
I0
sbssg25
S'\xb0\xc8pN\xaf>\xa0\xbaz\x144\xe0A9\xb8?'
p842
ssS'madrona_openid_models'
p843
(dp844
g6
(dp845
g8
I0
sg9
S'madrona_openid_models.html'
p846
sg11
S'madrona/openid/models'
p847
sg13
g14
(g15
g16
NtRp848
(dp849
g19
I1
sg20
I0
sg21
I49
sg22
I0
sg23
I14
sg24
I0
sbssg25
S"!O\x82'\x1e\x18\xe8\x00\xa5,>\xbb\x88A9\xc6"
p850
ssS'madrona_heatmap_urls'
p851
(dp852
g6
(dp853
g8
I0
sg9
S'madrona_heatmap_urls.html'
p854
sg11
S'madrona/heatmap/urls'
p855
sg13
g14
(g15
g16
NtRp856
(dp857
g19
I1
sg20
I0
sg21
I3
sg22
I0
sg23
I0
sg24
I0
sbssg25
S'z\x0e?\xfa\xa9O\x90\x8e.\x8c*\xec\xd0*0\xfc'
p858
ssS'madrona_staticmap_views'
p859
(dp860
g6
(dp861
g8
I0
sg9
S'madrona_staticmap_views.html'
p862
sg11
S'madrona/staticmap/views'
p863
sg13
g14
(g15
g16
NtRp864
(dp865
g19
I1
sg20
I0
sg21
I213
sg22
I0
sg23
I190
sg24
I0
sbssg25
S'\xab\xf5s\xf3\x93\xfa\xea"\x94\xf5\x9b\x93+\x8e\xd4\xeb'
p866
ssS'madrona_bookmarks_urls'
p867
(dp868
g6
(dp869
g8
I0
sg9
S'madrona_bookmarks_urls.html'
p870
sg11
S'madrona/bookmarks/urls'
p871
sg13
g14
(g15
g16
NtRp872
(dp873
g19
I1
sg20
I0
sg21
I3
sg22
I0
sg23
I0
sg24
I0
sbssg25
S'\x1ee\x11\xa5K\x19\x95\x17\xfa\xbd%@\x02 \x0b\xb0'
p874
ssS'madrona_layer_manager_models'
p875
(dp876
g6
(dp877
g8
I0
sg9
S'madrona_layer_manager_models.html'
p878
sg11
S'madrona/layer_manager/models'
p879
sg13
g14
(g15
g16
NtRp880
(dp881
g19
I1
sg20
I0
sg21
I167
sg22
I0
sg23
I141
sg24
I0
sbssg25
S']$\x1e\xa8Rs\x89\xef\x9e\x03\xf4\xf7\x8b\x01\xdd\x8a'
p882
ssS'madrona_openid_openid_store'
p883
(dp884
g6
(dp885
g8
I0
sg9
S'madrona_openid_openid_store.html'
p886
sg11
S'madrona/openid/openid_store'
p887
sg13
g14
(g15
g16
NtRp888
(dp889
g19
I1
sg20
I0
sg21
I78
sg22
I0
sg23
I55
sg24
I0
sbssg25
S'\xc9kQ\xe4~a\x17$\x08\xe4\x11\x02\x18\x83\xb5\xee'
p890
ssS'madrona_common_utils'
p891
(dp892
g6
(dp893
g8
I0
sg9
S'madrona_common_utils.html'
p894
sg11
S'madrona/common/utils'
p895
sg13
g14
(g15
g16
NtRp896
(dp897
g19
I1
sg20
I0
sg21
I387
sg22
I0
sg23
I321
sg24
I0
sbssg25
S'\xd2\xb4\x11D\xd0NQ|8U\x0f\xf5\xb9vze'
p898
ssS'madrona_news_urls'
p899
(dp900
g6
(dp901
g8
I0
sg9
S'madrona_news_urls.html'
p902
sg11
S'madrona/news/urls'
p903
sg13
g14
(g15
g16
NtRp904
(dp905
g19
I1
sg20
I0
sg21
I7
sg22
I0
sg23
I0
sg24
I0
sbssg25
S'\xad63\xb4\xd1\xf9\xbb\x1bV||\x9a\xe1\xa2\x063'
p906
ssS'madrona_manipulators_manipulators'
p907
(dp908
g6
(dp909
g8
I0
sg9
S'madrona_manipulators_manipulators.html'
p910
sg11
S'madrona/manipulators/manipulators'
p911
sg13
g14
(g15
g16
NtRp912
(dp913
g19
I1
sg20
I0
sg21
I364
sg22
I0
sg23
I270
sg24
I0
sbssg25
S'\xd1Ox\xc0"\xdc6\xde\x91\\\x7f;\x8a\x040\xd4'
p914
ssS'madrona_openid_middleware'
p915
(dp916
g6
(dp917
g8
I0
sg9
S'madrona_openid_middleware.html'
p918
sg11
S'madrona/openid/middleware'
p919
sg13
g14
(g15
g16
NtRp920
(dp921
g19
I1
sg20
I0
sg21
I21
sg22
I0
sg23
I2
sg24
I0
sbssg25
S'\xf0\x1b0\xde\\\xe6\x1aK\x04h KF\xd2\x93\xa6'
p922
ssS'madrona_manipulators_models'
p923
(dp924
g6
(dp925
g8
I0
sg9
S'madrona_manipulators_models.html'
p926
sg11
S'madrona/manipulators/models'
p927
sg13
g14
(g15
g16
NtRp928
(dp929
g19
I1
sg20
I0
sg21
I15
sg22
I0
sg23
I4
sg24
I0
sbssg25
S'cMxl\x06\x98n\xd0\x08V\x93]\xe0\x8b\xd4\xd3'
p930
ssS'madrona_openid_urls'
p931
(dp932
g6
(dp933
g8
I0
sg9
S'madrona_openid_urls.html'
p934
sg11
S'madrona/openid/urls'
p935
sg13
g14
(g15
g16
NtRp936
(dp937
g19
I1
sg20
I0
sg21
I18
sg22
I0
sg23
I3
sg24
I0
sbssg25
S'd\x1d\x04=\x13\xb3{{}U@\xa9\x91%k\x98'
p938
ssS'madrona_bookmarks_models'
p939
(dp940
g6
(dp941
g8
I0
sg9
S'madrona_bookmarks_models.html'
p942
sg11
S'madrona/bookmarks/models'
p943
sg13
g14
(g15
g16
NtRp944
(dp945
g19
I1
sg20
I0
sg21
I37
sg22
I0
sg23
I10
sg24
I0
sbssg25
S"C'\x19\xdaC\x18~\x7fV\xd0\xb8\xbc\x17\x15\x02\xda"
p946
ssS'madrona_features_views'
p947
(dp948
g6
(dp949
g8
I0
sg9
S'madrona_features_views.html'
p950
sg11
S'madrona/features/views'
p951
sg13
g14
(g15
g16
NtRp952
(dp953
g19
I1
sg20
I0
sg21
I452
sg22
I0
sg23
I409
sg24
I0
sbssg25
S'\xc3mf\xc5\xd9\xde\xf9-H\x8f\x1d\x05\xf0\xb0A\xca'
p954
ssS'madrona_layer_manager_tests'
p955
(dp956
g6
(dp957
g8
I0
sg9
S'madrona_layer_manager_tests.html'
p958
sg11
S'madrona/layer_manager/tests'
p959
sg13
g14
(g15
g16
NtRp960
(dp961
g19
I1
sg20
I0
sg21
I35
sg22
I0
sg23
I0
sg24
I0
sbssg25
S'\xe2\xd5\xaa\x1c\x9d\xcb\x19\xe2(\xdf\xcaN\xecAr\xc1'
p962
ssS'madrona_simplefaq_models'
p963
(dp964
g6
(dp965
g8
I0
sg9
S'madrona_simplefaq_models.html'
p966
sg11
S'madrona/simplefaq/models'
p967
sg13
g14
(g15
g16
NtRp968
(dp969
g19
I1
sg20
I0
sg21
I15
sg22
I0
sg23
I2
sg24
I0
sbssg25
S'&,\xd7\x0f\x1c(\xfan G\xe1\x07\xe0\xe9\xf2\x08'
p970
ssS'madrona_common_management___init__'
p971
(dp972
g6
(dp973
g8
I0
sg9
S'madrona_common_management___init__.html'
p974
sg11
S'madrona/common/management/__init__'
p975
sg13
g14
(g15
g16
NtRp976
(dp977
g19
I1
sg20
I0
sg21
I0
sg22
I0
sg23
I0
sg24
I0
sbssg25
S'\xb0\xc8pN\xaf>\xa0\xbaz\x144\xe0A9\xb8?'
p978
sssS'version'
p979
S'3.5.2'
p980
sS'settings'
p981
S'\xdc\xd4\nbf\x8c&i\xfe\x13\xc4\xa8*9/Q'
p982
sS'format'
p983
I1
s.