ccopy_reg
_reconstructor
p0
(cnetworkx.classes.graph
Graph
p1
c__builtin__
object
p2
Ntp3
Rp4
(dp5
S'node'
p6
(dp7
g0
(cdjango.contrib.gis.geos.point
Point
p8
g2
Ntp9
Rp10
(S'\x01\x01\x00\x00\x00_E\xd7\xf6\xd6\x16\x16\xc1p\x12\x83\x94\x97\xba\x1fA'
p11
Ntp12
b(dp13
sg0
(g8
g2
Ntp14
Rp15
(S'\x01\x01\x00\x00\x00=W\xc1\xe1\xfd\xd0\x16\xc1\x00\x8c}\xd8\\\x97 A'
p16
Ntp17
b(dp18
sg0
(g8
g2
Ntp19
Rp20
(S'\x01\x01\x00\x00\x00K\xc1\xba\xa2\xd5g\x16\xc10N\x8c\x96Y\xff A'
p21
Ntp22
b(dp23
sg0
(g8
g2
Ntp24
Rp25
(S'\x01\x01\x00\x00\x00\xf2\xf2\xb5\xae3y\rAp\xf3\xaa\x0c#\x16+A'
p26
Ntp27
b(dp28
sg0
(g8
g2
Ntp29
Rp30
(S'\x01\x01\x00\x00\x00\x89Xl\x14:=\x0fA \xc3,4\x13\x19\xf3@'
p31
Ntp32
b(dp33
sg0
(g8
g2
Ntp34
Rp35
(S'\x01\x01\x00\x00\x00\x8a\xf5y\xdc\xbc\x1b\x15\xc1\x00\x8b\xe1\x13G\x8b\x14A'
p36
Ntp37
b(dp38
sg0
(g8
g2
Ntp39
Rp40
(S'\x01\x01\x00\x00\x00\x0e.\x94[N\x9a\x10\xc1@\x02\xddF\x82\xd6\xe8@'
p41
Ntp42
b(dp43
sg0
(g8
g2
Ntp44
Rp45
(S'\x01\x01\x00\x00\x00\x87\xa6\x1d\xe9\x9a\x83\x11\xc1\x80\x9a\\U\xf5B\xef@'
p46
Ntp47
b(dp48
sg0
(g8
g2
Ntp49
Rp50
(S'\x01\x01\x00\x00\x00\x92\x95\xfaI+\xaa\x13\xc1\xa0@\x8a\x99\xf02\xfa@'
p51
Ntp52
b(dp53
sg0
(g8
g2
Ntp54
Rp55
(S'\x01\x01\x00\x00\x00\x0ck#\x14Gn\x13\xc1\xe0g\xa6\xf98W\xfd@'
p56
Ntp57
b(dp58
sg0
(g8
g2
Ntp59
Rp60
(S'\x01\x01\x00\x00\x00x\xd2\xe5\xa7\xcc\x08\x14\xc10\x80\n\xa7q\xdf\x02A'
p61
Ntp62
b(dp63
sg0
(g8
g2
Ntp64
Rp65
(S'\x01\x01\x00\x00\x00\x1b{\x8c\x9d[\xab\x13\xc1\x00\x8a\xca\xd9>\x9d\x05A'
p66
Ntp67
b(dp68
sg0
(g8
g2
Ntp69
Rp70
(S'\x01\x01\x00\x00\x00G\x0f\xfe<\xb6\xc8\x13\xc1`@\x90\xb2\x86u\x07A'
p71
Ntp72
b(dp73
sg0
(g8
g2
Ntp74
Rp75
(S'\x01\x01\x00\x00\x00\xd2\x12\x85\x80\xf6\x07\x14\xc1\xc0=\xcd\xfd\xa1^\tA'
p76
Ntp77
b(dp78
sg0
(g8
g2
Ntp79
Rp80
(S'\x01\x01\x00\x00\x00\x13\xfd1c\xc4\xdd\x14\xc1\x00\xb8\x18\xbf\xa2\xc6\x0bA'
p81
Ntp82
b(dp83
sg0
(g8
g2
Ntp84
Rp85
(S'\x01\x01\x00\x00\x00:\x91\xbf-\xf3I\x15\xc1\x00\xfaA6\x961\rA'
p86
Ntp87
b(dp88
sg0
(g8
g2
Ntp89
Rp90
(S'\x01\x01\x00\x00\x00\xf9h\xca\x8bu\x8b\x16\xc1\xa0P\x08\xc5\x89^\x0fA'
p91
Ntp92
b(dp93
sg0
(g8
g2
Ntp94
Rp95
(S'\x01\x01\x00\x00\x00\x18`7\xdbHy\x16\xc1\xf0t\xb4\x0c\xf20\x10A'
p96
Ntp97
b(dp98
sg0
(g8
g2
Ntp99
Rp100
(S'\x01\x01\x00\x00\x00\x1a\x18\x99\x99\x99\xbb\x16\xc1\xd0\x06\x9b\x92\x0e\xef\x10A'
p101
Ntp102
b(dp103
sg0
(g8
g2
Ntp104
Rp105
(S'\x01\x01\x00\x00\x00Q\x1f\xf2x-\xa9\x12\xc1@\xa1\xdc/\xe0\x81\xf5@'
p106
Ntp107
b(dp108
sg0
(g8
g2
Ntp109
Rp110
(S'\x01\x01\x00\x00\x00\x06\xec`V9E\x15\xc1\xd0\xf4\xf0Q\x89\x92\x15A'
p111
Ntp112
b(dp113
sg0
(g8
g2
Ntp114
Rp115
(S'\x01\x01\x00\x00\x00\xfeA\xc0\x8c\x01\xd1\x14\xc1@sO\x18\x8f\xce\x16A'
p116
Ntp117
b(dp118
sg0
(g8
g2
Ntp119
Rp120
(S'\x01\x01\x00\x00\x00\xcc}\x04\xedq\xb4\x14\xc1\xf0+u,\xc4\xc7\x17A'
p121
Ntp122
b(dp123
sg0
(g8
g2
Ntp124
Rp125
(S'\x01\x01\x00\x00\x00\x10\xd2\xe3\x8b\xb2\x10\x15\xc1p\xb7\x18\xd8s\x9e\x19A'
p126
Ntp127
b(dp128
sg0
(g8
g2
Ntp129
Rp130
(S'\x01\x01\x00\x00\x00aH7\xd3\x90_\x10\xc1\x00\x1c\x82\xbbS\xe7\xe3@'
p131
Ntp132
b(dp133
sg0
(g8
g2
Ntp134
Rp135
(S'\x01\x01\x00\x00\x00qL\xc3\xc4\xb5Y\x15\xc10\xa9\x0b\n\xc2s\x1aA'
p136
Ntp137
b(dp138
sg0
(g8
g2
Ntp139
Rp140
(S'\x01\x01\x00\x00\x00\xdc\x0e\x95\x9f{\x8d\x15\xc1\xd0F\x10\x85\xf0\xf9\x19A'
p141
Ntp142
b(dp143
sg0
(g8
g2
Ntp144
Rp145
(S'\x01\x01\x00\x00\x00\x89Xl\x14:=\x0fA \xc3,4\x13\x19\xf3@'
p146
Ntp147
b(dp148
sg0
(g8
g2
Ntp149
Rp150
(S'\x01\x01\x00\x00\x00\xeds\xb2\xf4\xdcL\x15\xc1\xe0\x00\x08,\x1ev\x1bA'
p151
Ntp152
b(dp153
sg0
(g8
g2
Ntp154
Rp155
(S'\x01\x01\x00\x00\x00}vk\x88\xbf\x01\x16\xc10\xb7\x13\xa2r-\x1cA'
p156
Ntp157
b(dp158
sg0
(g8
g2
Ntp159
Rp160
(S'\x01\x01\x00\x00\x00\x12\xcaA\\%G\x16\xc1p0\xcaF\xde/\x1dA'
p161
Ntp162
b(dp163
sg0
(g8
g2
Ntp164
Rp165
(S'\x01\x01\x00\x00\x00$\x15C\xff\xa6U\x16\xc1\x90g\xfa/\xf5n\x1eA'
p166
Ntp167
b(dp168
sg0
(g8
g2
Ntp169
Rp170
(S'\x01\x01\x00\x00\x00B\xffy\x1du\x10\x16\xc1\xf0\x8e4\x8a\x97A\x1fA'
p171
Ntp172
b(dp173
ssS'graph'
p174
(dp175
sS'edge'
p176
(dp177
g10
(dp178
g15
(dp179
S'distance'
p180
F16.547197040686907
ssg165
(dp181
g180
F13.422826407552483
ssg170
(dp182
g180
F4.8185937077209822
sssg15
(dp183
g20
(dp184
g180
F9.2678030976949177
ssg100
(dp185
g180
F165.42286793026395
ssg10
g179
sg110
(dp186
g180
F119.24054708076568
ssg160
(dp187
g180
F41.044449156407332
ssg165
(dp188
g180
F28.413816468126587
ssg170
(dp189
g180
F21.052510445528295
sssg20
(dp190
g15
g184
sg25
(dp191
g180
F430.32589451445631
sssg25
(dp192
g20
g191
sg30
(dp193
g180
F502.98355938924624
ssg145
(dp194
g180
F502.98355938924624
sssg30
(dp195
g25
g193
sg130
(dp196
g180
F326.53583585407154
sssg35
(dp197
g100
(dp198
g180
F40.303504949969245
ssg110
(dp199
g180
F10.598407892893011
sssg40
(dp200
g45
(dp201
g180
F12.365264587479087
ssg130
(dp202
g180
F6.6996717013545544
sssg45
(dp203
g40
g201
sg50
(dp204
g180
F34.68219273028263
ssg130
(dp205
g180
F18.541575174685775
ssg105
(dp206
g180
F18.973653748438025
sssg50
(dp207
g85
(dp208
g180
F83.575839363746567
ssg55
(dp209
g180
F8.3433097113213623
ssg90
(dp210
g180
F97.510818028944371
ssg60
(dp211
g180
F29.627824824516125
ssg45
g204
sg130
(dp212
g180
F53.223524817573413
ssg80
(dp213
g180
F75.701872906452166
ssg105
(dp214
g180
F15.717287106590634
sssg55
(dp215
g50
g209
sg60
(dp216
g180
F22.256836505345053
ssg90
(dp217
g180
F90.72147330611341
sssg60
(dp218
g85
(dp219
g180
F54.066122708089374
ssg55
g216
sg90
(dp220
g180
F68.552535222672333
ssg65
(dp221
g180
F14.440826188913189
ssg50
g211
sg70
(dp222
g180
F23.484012481988771
ssg75
(dp223
g180
F33.070660649303726
ssg80
(dp224
g180
F46.103746721985019
sssg65
(dp225
g85
(dp226
g180
F41.956728293930013
ssg70
(dp227
g180
F9.4630474578786163
ssg90
(dp228
g180
F57.642162566967052
ssg60
g221
sg75
(dp229
g180
F19.467608842635887
ssg80
(dp230
g180
F33.648471588028258
sssg70
(dp231
g85
(dp232
g180
F32.966698544335863
ssg65
g227
sg90
(dp233
g180
F49.104083792220699
ssg60
g222
sg75
(dp234
g180
F10.045355196334954
ssg80
(dp235
g180
F24.581376670239276
sssg75
(dp236
g60
g223
sg65
g229
sg80
(dp237
g180
F14.910371824406646
ssg70
g234
sg90
(dp238
g180
F39.844013043339324
sssg80
(dp239
g85
(dp240
g180
F8.401909343815813
ssg60
g224
sg90
(dp241
g180
F25.031278969605694
ssg65
g230
sg50
g213
sg70
g235
sg75
g237
ssg85
(dp242
g60
g219
sg90
(dp243
g180
F16.914948143274966
ssg65
g226
sg50
g208
sg70
g232
sg80
g240
ssg90
(dp244
g85
g243
sg55
g217
sg95
(dp245
g180
F5.2073428606484402
ssg60
g220
sg100
(dp246
g180
F12.860538525146039
ssg65
g228
sg50
g210
sg70
g233
sg75
g238
sg80
g241
ssg95
(dp247
g90
g245
sg100
(dp248
g180
F8.0070660732431911
sssg100
(dp249
g125
(dp250
g180
F90.034531782775147
ssg35
g198
sg90
g246
sg140
(dp251
g180
F92.838388970531952
ssg95
g248
sg15
g185
sg155
(dp252
g180
F114.70550612630268
ssg110
(dp253
g180
F49.514688350414382
ssg160
(dp254
g180
F124.82988452264458
ssg165
(dp255
g180
F137.4932084289463
ssg120
(dp256
g180
F72.694675965221037
sssg105
(dp257
g45
g206
sg50
g214
ssg110
(dp258
g125
(dp259
g180
F41.248983680766116
ssg35
g199
sg140
(dp260
g180
F44.926286699030328
ssg100
g253
sg15
g186
sg155
(dp261
g180
F67.660401353788785
ssg160
(dp262
g180
F78.196176055896188
ssg115
(dp263
g180
F13.39039244739088
ssg120
(dp264
g180
F23.203583803955926
sssg115
(dp265
g110
g263
sg120
(dp266
g180
F9.9752904482663016
ssg125
(dp267
g180
F28.740378382278116
ssg140
(dp268
g180
F33.125895193349812
sssg120
(dp269
g100
g256
sg110
g264
sg115
g266
sg125
(dp270
g180
F19.074268445667034
ssg140
(dp271
g180
F23.964624710725452
sssg125
(dp272
g100
g250
sg110
g259
sg115
g267
sg120
g270
sg140
(dp273
g180
F6.1532535073817298
sssg130
(dp274
g30
g196
sg40
g202
sg50
g212
sg45
g205
sg145
(dp275
g180
F326.53583585407154
sssg135
(dp276
g140
(dp277
g180
F5.2638091991345206
ssg150
(dp278
g180
F10.287087510372448
ssg155
(dp279
g180
F18.793229905544202
sssg140
(dp280
g125
g273
sg110
g260
sg135
g277
sg150
(dp281
g180
F15.335680227367547
ssg100
g251
sg155
(dp282
g180
F22.881468731208738
ssg160
(dp283
g180
F33.509794620225129
ssg115
g268
sg120
g271
ssg145
(dp284
g25
g194
sg130
g275
ssg150
(dp285
g135
g278
sg140
g281
sg155
(dp286
g180
F10.241974609154749
sssg155
(dp287
g110
g261
sg135
g279
sg140
g282
sg150
g286
sg100
g252
sg160
(dp288
g180
F10.640917921077346
sssg160
(dp289
g100
g254
sg140
g283
sg15
g187
sg155
g288
sg110
g262
sg165
(dp290
g180
F12.702579698309757
sssg165
(dp291
g10
g181
sg15
g188
sg100
g255
sg160
g290
sg170
(dp292
g180
F8.8168523051054617
sssg170
(dp293
g10
g182
sg15
g189
sg165
g292
sssS'adj'
p294
g177
sS'name'
p295
S''
p296
sb.